; Function Attrs: nounwind uwtable
define hidden i32 @psa_driver_wrapper_hash_update(ptr noundef %0, ptr noundef %1, i64 noundef %2) local_unnamed_addr #1 {
  %4 = load i32, ptr %0, align 8
  %cond = icmp eq i32 %4, 1
  br i1 %cond, label %5, label %8

5:                                                ; preds = %3
  %6 = getelementptr inbounds nuw i8, ptr %0, i64 8
  %7 = tail call i32 @mbedtls_psa_hash_update(ptr noundef nonnull %6, ptr noundef %1, i64 noundef %2) #5
  br label %8

8:                                                ; preds = %3, %5
  %.0 = phi i32 [ %7, %5 ], [ -137, %3 ]
  ret i32 %.0
}